Certificate:
    Data:
        Version: 3 (0x2)
        Serial Number: 15265528312646812876 (0xd3da0d1ebffb44cc)
    Signature Algorithm: sha256WithRSAEncryption
        Issuer: C=US, ST=California, O=Wazuh Inc., CN=wazuh_cloud+\x08 /emailAddress=cloud@wazuh.com
        Validity
            Not Before: May 30 11:31:53 2019 GMT
            Not After : May 30 23:59:59 1970 GMT
        Subject: C=US, ST=California, O=Wazuh Inc., CN=wazuh_cloud+\x08 /emailAddress=cloud@wazuh.com
        Subject Public Key Info:
            Public Key Algorithm: rsaEncryption
                Public-Key: (2048 bit)
                Modulus:
                    00:c3:21:f2:f7:81:4c:3f:fd:e2:42:9d:60:92:a4:
                    13:ad:df:af:56:11:8c:47:71:76:fb:8b:c6:c5:20:
                    cd:85:b6:51:00:65:36:b4:8b:66:7f:fb:83:7e:b5:
                    ed:55:f4:ee:41:04:65:4f:db:12:85:8d:eb:df:33:
                    f2:a7:3b:89:bc:bc:25:e5:42:02:c1:e7:90:70:e1:
                    c5:dc:d3:45:cd:6e:3e:f2:4d:f7:2f:42:95:bd:16:
                    61:42:25:b0:1e:5f:9b:d5:66:0d:30:4e:4b:8a:42:
                    11:ee:fe:c9:81:47:f8:c9:ee:0d:48:a4:56:f5:6f:
                    ac:2d:c9:36:71:27:b7:80:8e:44:05:59:75:0f:b6:
                    45:f7:c2:3f:ab:19:e1:0e:b7:8e:fd:5f:d6:97:92:
                    5c:26:3e:6e:cf:1e:0b:ca:01:be:dc:ca:94:b9:44:
                    05:1e:6a:94:44:a8:d9:52:67:1c:98:75:d4:be:1a:
                    76:82:5b:28:fc:54:85:da:94:88:41:38:ee:1b:42:
                    d5:71:17:8e:51:54:25:c9:70:b2:89:72:f6:0f:2b:
                    76:63:ac:d8:f7:5e:ed:f8:b3:68:86:b1:1a:40:ff:
                    96:ae:bd:eb:85:9a:2e:2c:88:90:2a:8c:68:66:59:
                    f6:5c:9e:98:f7:a1:ec:c6:41:76:1b:63:ed:75:9c:
                    0f:23
                Exponent: 65537 (0x10001)
        X509v3 extensions:
            X509v3 Subject Key Identifier: 
                0C:63:D8:2E:D2:01:BF:2A:2B:29:4B:AE:0D:7C:7F:1E:2F:63:D8:35
            X509v3 Authority Key Identifier: 
                keyid:0C:63:D8:2E:D2:01:BF:2A:2B:29:4B:AE:0D:7C:7F:1E:2F:63:D8:35

            X509v3 Basic Constraints: 
                CA:TRUE
    Signature Algorithm: sha256WithRSAEncryption
         9a:1d:66:f0:c0:d3:6d:90:fe:e3:0d:e8:68:35:2e:23:09:28:
         ad:30:f9:6c:53:19:6a:58:45:aa:b2:e4:00:3f:ed:58:26:93:
         fa:b9:43:b5:08:5b:92:72:d6:fc:5d:39:bb:f2:6d:7f:63:ed:
         ca:88:26:5f:f1:c8:65:7c:10:dc:2f:a3:1a:a5:d8:4d:5b:98:
         8a:11:18:36:32:cb:9a:c5:20:b3:ca:93:64:8f:3f:68:fe:0e:
         76:07:3c:fd:b5:f2:24:19:8b:7a:da:fd:46:0a:ed:a2:68:72:
         58:a8:55:99:44:07:9d:37:99:22:a7:f1:81:ad:bf:e3:70:5a:
         26:ec:70:94:8e:b1:99:70:87:f8:1f:fc:54:11:34:c5:81:fe:
         02:5f:8d:e0:33:4c:b1:2d:96:1e:db:40:ce:7f:3a:62:3d:45:
         b8:5c:4f:6b:61:46:18:ba:db:75:34:8f:f3:85:21:00:94:94:
         bc:66:7d:a2:95:8c:be:2a:d1:d1:39:3a:28:1b:1e:29:63:4c:
         29:a1:ac:ff:15:00:1c:13:f1:2a:28:81:f7:d5:ec:aa:44:7c:
         c1:c0:b2:1e:1f:70:2c:b1:e5:32:c9:3f:d9:3e:9a:99:eb:8b:
         08:65:27:20:9f:59:79:1d:a0:6c:d7:7d:68:42:86:39:68:01:
         ab:3a:89:28
-----BEGIN CERTIFICATE-----
MIIDszCCApugAwIBAgIJANPaDR6/+0TMMA0GCSqGSIb3DQEBCwUAMHAxCzAJBgNV
BAYTAlVTMRMwEQYDVQQIDApDYWxpZm9ybmlhMRMwEQYDVQQKDApXYXp1aCBJbmMu
MRcwFQYDVQQDDA53YXp1aF9jbG91ZCsIIDEeMBwGCSqGSIb3DQEJARYPY2xvdWRA
d2F6dWguY29tMB4XDTE5MDUzMDExMzE1M1oXDTcwMDUzMDIzNTk1OVowcDELMAkG
A1UEBhMCVVMxEzARBgNVBAgMCkNhbGlmb3JuaWExEzARBgNVBAoMCldhenVoIElu
Yy4xFzAVBgNVBAMMDndhenVoX2Nsb3VkKwggMR4wHAYJKoZIhvcNAQkBFg9jbG91
ZEB3YXp1aC5jb20wggEiMA0GCSqGSIb3DQEBAQUAA4IBDwAwggEKAoIBAQDDIfL3
gUw//eJCnWCSpBOt369WEYxHcXb7i8bFIM2FtlEAZTa0i2Z/+4N+te1V9O5BBGVP
2xKFjevfM/KnO4m8vCXlQgLB55Bw4cXc00XNbj7yTfcvQpW9FmFCJbAeX5vVZg0w
TkuKQhHu/smBR/jJ7g1IpFb1b6wtyTZxJ7eAjkQFWXUPtkX3wj+rGeEOt479X9aX
klwmPm7PHgvKAb7cypS5RAUeapREqNlSZxyYddS+GnaCWyj8VIXalIhBOO4bQtVx
F45RVCXJcLKJcvYPK3ZjrNj3Xu34s2iGsRpA/5auveuFmi4siJAqjGhmWfZcnpj3
oezGQXYbY+11nA8jAgMBAAGjUDBOMB0GA1UdDgQWBBQMY9gu0gG/KispS64NfH8e
L2PYNTAfBgNVHSMEGDAWgBQMY9gu0gG/KispS64NfH8eL2PYNTAMBgNVHRMEBTAD
AQH/MA0GCSqGSIb3DQEBCwUAA4IBAQCaHWbwwNNtkP7jDehoNS4jCSitMPlsUxlq
WEWqsuQAP+1YJpP6uUO1CFuSctb8XTm78m1/Y+3KiCZf8chlfBDcL6MapdhNW5iK
ERg2MsuaxSCzypNkjz9o/g52Bzz9tfIkGYt62v1GCu2iaHJYqFWZRAedN5kip/GB
rb/jcFom7HCUjrGZcIf4H/xUETTFgf4CX43gM0yxLZYe20DOfzpiPUW4XE9rYUYY
utt1NI/zhSEAlJS8Zn2ilYy+KtHROTooGx4pY0wpoaz/FQAcE/EqKIH31eyqRHzB
wLIeH3AsseUyyT/ZPpqZ64sIZScgn1l5HaBs131oQoY5aAGrOoko
-----END CERTIFICATE-----
