Certificate:
    Data:
        Version: 3 (0x2)
        Serial Number: 15265528312646812878 (0xd3da0d1ebffb44ce)
    Signature Algorithm: sha256WithRSAEncryption
        Issuer: C=US, ST=California, O=Wazuh Inc., OU=Wazuh cloud, CN=CA w\x08eks/emailAddress=cloud@wazuh.com
        Validity
            Not Before: May 31 14:12:05 2019 GMT
            Not After : May 18 14:12:05 2069 GMT
        Subject: C=US, ST=California, O=Wazuh Inc., OU=Wazuh cloud, CN=CA w\x08eks/emailAddress=cloud@wazuh.com
        Subject Public Key Info:
            Public Key Algorithm: rsaEncryption
                Public-Key: (2048 bit)
                Modulus:
                    00:ab:3d:f6:44:c0:07:2e:28:f8:54:c6:c4:05:d1:
                    07:ad:8c:2f:71:f0:89:fc:70:cb:70:97:43:b9:80:
                    7a:d7:a6:96:53:1f:b9:43:99:e3:06:4b:63:c0:be:
                    6a:a8:03:62:4e:b9:e3:cc:11:d3:b3:07:66:d4:d8:
                    83:42:c1:91:81:79:eb:01:71:58:74:6d:83:c9:51:
                    9b:cf:e6:17:10:77:8f:be:4b:a2:92:49:00:7c:72:
                    1a:d1:23:1c:26:c3:5c:8f:78:ce:ae:c2:e3:1a:84:
                    67:31:9e:58:fb:62:48:96:47:c9:5e:dc:2f:c0:34:
                    d6:92:0d:3b:87:6a:da:02:cd:21:ef:07:0f:9d:2c:
                    97:de:2f:db:03:e8:00:32:10:87:fb:c5:a1:3d:3d:
                    bb:5e:5a:05:39:be:bd:c2:ab:ed:50:1c:c9:5f:fc:
                    2a:09:f0:79:43:6a:f2:40:93:f9:d6:60:55:37:27:
                    5d:0b:a0:fa:f9:3e:2e:99:79:17:f6:96:dd:69:16:
                    25:b9:58:5b:98:b5:5e:42:19:82:ec:98:19:53:75:
                    55:0f:2f:f5:cb:22:eb:7d:b0:70:46:0c:39:8c:8f:
                    b4:20:6b:db:4c:6c:c6:22:ab:1e:76:e8:61:1e:11:
                    7f:55:1c:f1:b7:3c:4f:74:98:09:9f:ac:3e:99:1d:
                    94:4f
                Exponent: 65537 (0x10001)
        X509v3 extensions:
            X509v3 Subject Key Identifier: 
                98:98:36:F9:4C:69:40:03:0B:6B:F0:3F:D7:BB:B2:64:46:67:42:82
            X509v3 Authority Key Identifier: 
                keyid:98:98:36:F9:4C:69:40:03:0B:6B:F0:3F:D7:BB:B2:64:46:67:42:82

            X509v3 Basic Constraints: 
                CA:TRUE
    Signature Algorithm: sha256WithRSAEncryption
         a3:c2:a8:3d:7a:61:60:d0:95:55:20:67:0b:44:2b:5b:2e:45:
         69:49:d4:a1:5e:4f:1b:ad:29:2b:28:4e:93:48:02:17:3a:87:
         63:24:7c:92:33:ee:e1:5a:96:83:f1:d3:3b:30:2e:82:4f:fd:
         1e:79:f5:a9:a8:b2:db:fe:1f:2d:a3:61:c9:72:2b:83:4f:ff:
         49:5d:7a:13:ac:16:40:74:13:f0:56:ba:fc:fb:0b:95:5c:18:
         0b:b1:0f:97:34:79:aa:3e:77:04:04:49:1e:a3:d6:87:bb:00:
         85:da:57:32:a3:bd:59:15:f8:2d:a9:22:3f:ed:d9:bf:15:00:
         be:02:db:a3:63:e3:12:57:6b:0c:e8:e5:1c:38:0d:a1:2c:c1:
         74:77:26:ec:85:51:e4:97:0f:42:f2:47:a3:ec:50:54:ee:ae:
         d0:b6:c2:4b:14:c2:5c:76:22:05:c5:59:05:b3:48:12:37:96:
         74:89:de:2b:7f:ab:9c:bd:47:ce:21:67:fe:1b:61:3a:0f:b2:
         74:c8:4b:e2:25:b0:76:3a:69:be:e1:91:27:e0:f6:ac:0e:b2:
         1f:89:52:3a:ef:dd:e0:37:f5:4e:cc:7b:a6:44:c9:a4:2c:36:
         a4:fc:8c:0d:79:83:72:e6:7e:11:b7:88:6b:4e:09:1c:6b:80:
         8f:f7:f4:3f
-----BEGIN CERTIFICATE-----
MIID1zCCAr+gAwIBAgIJANPaDR6/+0TOMA0GCSqGSIb3DQEBCwUAMIGAMQswCQYD
VQQGEwJVUzETMBEGA1UECAwKQ2FsaWZvcm5pYTETMBEGA1UECgwKV2F6dWggSW5j
LjEUMBIGA1UECwwLV2F6dWggY2xvdWQxETAPBgNVBAMMCENBIHcIZWtzMR4wHAYJ
KoZIhvcNAQkBFg9jbG91ZEB3YXp1aC5jb20wIBcNMTkwNTMxMTQxMjA1WhgPMjA2
OTA1MTgxNDEyMDVaMIGAMQswCQYDVQQGEwJVUzETMBEGA1UECAwKQ2FsaWZvcm5p
YTETMBEGA1UECgwKV2F6dWggSW5jLjEUMBIGA1UECwwLV2F6dWggY2xvdWQxETAP
BgNVBAMMCENBIHcIZWtzMR4wHAYJKoZIhvcNAQkBFg9jbG91ZEB3YXp1aC5jb20w
ggEiMA0GCSqGSIb3DQEBAQUAA4IBDwAwggEKAoIBAQCrPfZEwAcuKPhUxsQF0Qet
jC9x8In8cMtwl0O5gHrXppZTH7lDmeMGS2PAvmqoA2JOuePMEdOzB2bU2INCwZGB
eesBcVh0bYPJUZvP5hcQd4++S6KSSQB8chrRIxwmw1yPeM6uwuMahGcxnlj7YkiW
R8le3C/ANNaSDTuHatoCzSHvBw+dLJfeL9sD6AAyEIf7xaE9PbteWgU5vr3Cq+1Q
HMlf/CoJ8HlDavJAk/nWYFU3J10LoPr5Pi6ZeRf2lt1pFiW5WFuYtV5CGYLsmBlT
dVUPL/XLIut9sHBGDDmMj7Qga9tMbMYiqx526GEeEX9VHPG3PE90mAmfrD6ZHZRP
AgMBAAGjUDBOMB0GA1UdDgQWBBSYmDb5TGlAAwtr8D/Xu7JkRmdCgjAfBgNVHSME
GDAWgBSYmDb5TGlAAwtr8D/Xu7JkRmdCgjAMBgNVHRMEBTADAQH/MA0GCSqGSIb3
DQEBCwUAA4IBAQCjwqg9emFg0JVVIGcLRCtbLkVpSdShXk8brSkrKE6TSAIXOodj
JHySM+7hWpaD8dM7MC6CT/0eefWpqLLb/h8to2HJciuDT/9JXXoTrBZAdBPwVrr8
+wuVXBgLsQ+XNHmqPncEBEkeo9aHuwCF2lcyo71ZFfgtqSI/7dm/FQC+AtujY+MS
V2sM6OUcOA2hLMF0dybshVHklw9C8kej7FBU7q7QtsJLFMJcdiIFxVkFs0gSN5Z0
id4rf6ucvUfOIWf+G2E6D7J0yEviJbB2Omm+4ZEn4PasDrIfiVI6793gN/VOzHum
RMmkLDak/IwNeYNy5n4Rt4hrTgkca4CP9/Q/
-----END CERTIFICATE-----
