Certificate:
    Data:
        Version: 3 (0x2)
        Serial Number: 15265528312646812877 (0xd3da0d1ebffb44cd)
    Signature Algorithm: sha256WithRSAEncryption
        Issuer: C=US, ST=California, O=Wazuh Inc., OU=wazuh cloud, CN=CA certificate for eks/emailAddress=w\x08cloud@wazuh.com
        Validity
            Not Before: May 31 13:45:39 2019 GMT
            Not After : May 30 23:59:59 1970 GMT
        Subject: C=US, ST=California, O=Wazuh Inc., OU=wazuh cloud, CN=CA certificate for eks/emailAddress=w\x08cloud@wazuh.com
        Subject Public Key Info:
            Public Key Algorithm: rsaEncryption
                Public-Key: (2048 bit)
                Modulus:
                    00:a7:2f:be:de:e3:40:a7:b9:12:ef:a5:51:18:6d:
                    1f:58:1a:88:59:c8:c0:8d:1c:70:2d:57:ff:e9:aa:
                    8d:3b:3f:7e:0f:ea:e0:cd:d2:ba:77:7d:31:fc:1c:
                    82:23:77:aa:c4:7f:e0:ca:9a:74:c7:bc:14:23:f5:
                    1a:0e:d9:fc:a2:50:8d:48:56:8a:28:c0:38:aa:b3:
                    f4:89:9b:38:81:b7:b1:15:30:d0:15:58:8e:cd:84:
                    80:a5:06:f6:29:da:44:78:b3:2f:4d:b8:49:9f:7d:
                    91:77:65:7d:77:4a:93:43:4a:75:54:9c:72:36:64:
                    fc:60:0e:39:5f:ce:fe:7a:d6:cd:4f:36:03:14:77:
                    cd:b5:bf:07:8c:d9:b5:e8:e5:1b:75:b4:f4:89:1f:
                    5d:60:3e:27:66:19:07:f2:48:fa:ab:a3:66:93:6f:
                    f3:b6:84:f8:e5:73:9f:be:26:5b:dc:27:20:f4:10:
                    57:07:9a:a0:b9:53:07:57:17:1e:f5:22:b1:a6:2d:
                    8e:37:3c:af:23:06:7e:90:15:72:a8:f1:81:65:f8:
                    f7:6b:39:d5:fa:ab:53:a0:be:55:26:88:a5:20:1e:
                    fe:62:3b:5d:80:dc:43:86:7b:ca:2f:a8:46:95:b9:
                    49:35:d7:85:c8:6c:22:b7:64:69:c4:b6:8c:79:f3:
                    5f:21
                Exponent: 65537 (0x10001)
        X509v3 extensions:
            X509v3 Subject Key Identifier: 
                B9:9E:8F:59:6D:6B:68:52:E7:98:70:5E:AD:FE:D6:7A:EB:AC:F5:7F
            X509v3 Authority Key Identifier: 
                keyid:B9:9E:8F:59:6D:6B:68:52:E7:98:70:5E:AD:FE:D6:7A:EB:AC:F5:7F

            X509v3 Basic Constraints: 
                CA:TRUE
    Signature Algorithm: sha256WithRSAEncryption
         17:38:31:8a:06:79:70:39:4e:03:5e:26:d6:50:7b:3d:e1:71:
         01:bb:3f:95:0f:92:f7:cd:40:89:f2:ad:a4:71:70:fc:30:47:
         e1:10:c1:4e:ee:5f:96:f0:6e:f3:ea:ec:ce:58:f8:a5:a0:20:
         48:18:d4:ee:4f:c3:59:0e:de:af:87:fb:21:26:bc:c2:bf:b2:
         3c:4e:dd:fe:65:cb:ac:59:a2:e4:81:30:2c:63:c9:5e:c1:54:
         76:0f:73:86:8b:58:d8:1d:1f:ac:3c:95:dd:a8:3a:ad:3c:3a:
         8d:80:4c:93:e7:27:1b:b8:c6:65:d1:7b:e2:ba:44:49:6a:a3:
         fe:aa:29:e2:96:82:e1:39:89:61:3e:b8:24:03:35:f2:a1:ae:
         61:0f:58:f3:5d:5a:f7:d3:9a:1c:7c:25:39:f2:bc:c6:e9:72:
         f7:e4:96:5c:24:fb:32:7f:2d:e2:b5:d1:d7:73:70:43:a3:86:
         51:b1:b4:d4:52:c8:74:2f:c4:0d:18:7f:89:10:08:1a:56:01:
         27:7e:10:57:38:41:e9:07:92:86:8f:4c:cb:8e:15:10:75:c7:
         95:e4:6e:76:d0:f4:02:b6:81:85:d4:64:49:a2:da:b0:24:94:
         d1:00:0d:98:5a:55:37:16:95:6f:e5:10:a7:25:b9:e1:10:65:
         5f:f4:1f:88
-----BEGIN CERTIFICATE-----
MIID9TCCAt2gAwIBAgIJANPaDR6/+0TNMA0GCSqGSIb3DQEBCwUAMIGQMQswCQYD
VQQGEwJVUzETMBEGA1UECAwKQ2FsaWZvcm5pYTETMBEGA1UECgwKV2F6dWggSW5j
LjEUMBIGA1UECwwLd2F6dWggY2xvdWQxHzAdBgNVBAMMFkNBIGNlcnRpZmljYXRl
IGZvciBla3MxIDAeBgkqhkiG9w0BCQEWEXcIY2xvdWRAd2F6dWguY29tMB4XDTE5
MDUzMTEzNDUzOVoXDTcwMDUzMDIzNTk1OVowgZAxCzAJBgNVBAYTAlVTMRMwEQYD
VQQIDApDYWxpZm9ybmlhMRMwEQYDVQQKDApXYXp1aCBJbmMuMRQwEgYDVQQLDAt3
YXp1aCBjbG91ZDEfMB0GA1UEAwwWQ0EgY2VydGlmaWNhdGUgZm9yIGVrczEgMB4G
CSqGSIb3DQEJARYRdwhjbG91ZEB3YXp1aC5jb20wggEiMA0GCSqGSIb3DQEBAQUA
A4IBDwAwggEKAoIBAQCnL77e40CnuRLvpVEYbR9YGohZyMCNHHAtV//pqo07P34P
6uDN0rp3fTH8HIIjd6rEf+DKmnTHvBQj9RoO2fyiUI1IVooowDiqs/SJmziBt7EV
MNAVWI7NhIClBvYp2kR4sy9NuEmffZF3ZX13SpNDSnVUnHI2ZPxgDjlfzv561s1P
NgMUd821vweM2bXo5Rt1tPSJH11gPidmGQfySPqro2aTb/O2hPjlc5++JlvcJyD0
EFcHmqC5UwdXFx71IrGmLY43PK8jBn6QFXKo8YFl+PdrOdX6q1OgvlUmiKUgHv5i
O12A3EOGe8ovqEaVuUk114XIbCK3ZGnEtox5818hAgMBAAGjUDBOMB0GA1UdDgQW
BBS5no9ZbWtoUueYcF6t/tZ666z1fzAfBgNVHSMEGDAWgBS5no9ZbWtoUueYcF6t
/tZ666z1fzAMBgNVHRMEBTADAQH/MA0GCSqGSIb3DQEBCwUAA4IBAQAXODGKBnlw
OU4DXibWUHs94XEBuz+VD5L3zUCJ8q2kcXD8MEfhEMFO7l+W8G7z6uzOWPiloCBI
GNTuT8NZDt6vh/shJrzCv7I8Tt3+ZcusWaLkgTAsY8lewVR2D3OGi1jYHR+sPJXd
qDqtPDqNgEyT5ycbuMZl0XviukRJaqP+qiniloLhOYlhPrgkAzXyoa5hD1jzXVr3
05ocfCU58rzG6XL35JZcJPsyfy3itdHXc3BDo4ZRsbTUUsh0L8QNGH+JEAgaVgEn
fhBXOEHpB5KGj0zLjhUQdceV5G520PQCtoGF1GRJotqwJJTRAA2YWlU3FpVv5RCn
JbnhEGVf9B+I
-----END CERTIFICATE-----
